; Function Attrs: mustprogress nounwind uwtable
define hidden void @_ZN14MacroAssembler18super_call_VM_leafEPh8RegisterS1_(ptr noundef nonnull align 8 dereferenceable(40) %0, ptr noundef %1, i32 %2, i32 %3) local_unnamed_addr #0 align 2 {
  %.not5.i = icmp eq i32 %3, 6
  br i1 %.not5.i, label %_ZL9pass_arg1P14MacroAssembler8Register.exit, label %5

5:                                                ; preds = %4
  tail call void @_ZN9Assembler3movE8RegisterS0_(ptr noundef nonnull align 8 dereferenceable(40) %0, i32 6, i32 %3) #18
  br label %_ZL9pass_arg1P14MacroAssembler8Register.exit

_ZL9pass_arg1P14MacroAssembler8Register.exit:     ; preds = %4, %5
  %.not5.i8 = icmp eq i32 %2, 7
  br i1 %.not5.i8, label %_ZL9pass_arg0P14MacroAssembler8Register.exit, label %6

6:                                                ; preds = %_ZL9pass_arg1P14MacroAssembler8Register.exit
  tail call void @_ZN9Assembler3movE8RegisterS0_(ptr noundef nonnull align 8 dereferenceable(40) %0, i32 7, i32 %2) #18
  br label %_ZL9pass_arg0P14MacroAssembler8Register.exit

_ZL9pass_arg0P14MacroAssembler8Register.exit:     ; preds = %_ZL9pass_arg1P14MacroAssembler8Register.exit, %6
  tail call void @_ZN14MacroAssembler17call_VM_leaf_baseEPhi(ptr noundef nonnull align 8 dereferenceable(40) %0, ptr noundef %1, i32 poison)
  ret void
}